; Function Attrs: mustprogress nounwind uwtable
define internal void @_ZN4nodeL23DestroyParamCleanupHookEPv(ptr noundef %ptr) #3 {
entry:
  %isnull = icmp eq ptr %ptr, null
  br i1 %isnull, label %delete.end, label %delete.notnull

delete.notnull:                                   ; preds = %entry
  %propBag.i = getelementptr inbounds i8, ptr %ptr, i64 24
  %0 = load ptr, ptr %propBag.i, align 8
  %cmp.i.i10.i = icmp eq ptr %0, null
  br i1 %cmp.i.i10.i, label %_ZN2v814PersistentBaseINS_6ObjectEE5ResetEv.exit14.i, label %if.end.i11.i

if.end.i11.i:                                     ; preds = %delete.notnull
  tail call void @_ZN2v812api_internal13DisposeGlobalEPm(ptr noundef nonnull %0) #19
  store ptr null, ptr %propBag.i, align 8
  br label %_ZN2v814PersistentBaseINS_6ObjectEE5ResetEv.exit14.i

_ZN2v814PersistentBaseINS_6ObjectEE5ResetEv.exit14.i: ; preds = %if.end.i11.i, %delete.notnull
  %target.i = getelementptr inbounds i8, ptr %ptr, i64 16
  %1 = load ptr, ptr %target.i, align 8
  %cmp.i.i.i = icmp eq ptr %1, null
  br i1 %cmp.i.i.i, label %_ZN4node12DestroyParamD2Ev.exit, label %if.end.i.i

if.end.i.i:                                       ; preds = %_ZN2v814PersistentBaseINS_6ObjectEE5ResetEv.exit14.i
  tail call void @_ZN2v812api_internal13DisposeGlobalEPm(ptr noundef nonnull %1) #19
  br label %_ZN4node12DestroyParamD2Ev.exit

_ZN4node12DestroyParamD2Ev.exit:                  ; preds = %_ZN2v814PersistentBaseINS_6ObjectEE5ResetEv.exit14.i, %if.end.i.i
  tail call void @_ZdlPv(ptr noundef nonnull %ptr) #20
  br label %delete.end

delete.end:                                       ; preds = %_ZN4node12DestroyParamD2Ev.exit, %entry
  ret void
}